; Function Attrs: nounwind uwtable
define i32 @FT_Get_PFR_Metrics(ptr noundef %0, ptr noundef %1, ptr noundef %2, ptr noundef %3, ptr noundef %4) local_unnamed_addr #0 {
  %.not = icmp eq ptr %0, null
  br i1 %.not, label %47, label %6

6:                                                ; preds = %5
  %7 = getelementptr inbounds nuw i8, ptr %0, i64 240
  %8 = load ptr, ptr %7, align 8, !tbaa !3
  %9 = getelementptr inbounds nuw i8, ptr %8, i64 88
  %10 = load ptr, ptr %9, align 8, !tbaa !25
  %magicptr.i = ptrtoint ptr %10 to i64
  switch i64 %magicptr.i, label %ft_pfr_check.exit [
    i64 -2, label %ft_pfr_check.exit.thread
    i64 0, label %11
  ]

11:                                               ; preds = %6
  %12 = getelementptr inbounds nuw i8, ptr %0, i64 176
  %13 = load ptr, ptr %12, align 8, !tbaa !31
  %14 = load ptr, ptr %13, align 8, !tbaa !32
  %15 = getelementptr inbounds nuw i8, ptr %14, i64 64
  %16 = load ptr, ptr %15, align 8, !tbaa !36
  %.not.i = icmp eq ptr %16, null
  br i1 %.not.i, label %19, label %17

17:                                               ; preds = %11
  %18 = tail call ptr %16(ptr noundef nonnull %13, ptr noundef nonnull @.str) #2
  %.pre.i = load ptr, ptr %7, align 8, !tbaa !3
  br label %19

19:                                               ; preds = %17, %11
  %20 = phi ptr [ %.pre.i, %17 ], [ %8, %11 ]
  %.0.i = phi ptr [ %18, %17 ], [ null, %11 ]
  %.not19.i = icmp eq ptr %.0.i, null
  %21 = select i1 %.not19.i, ptr inttoptr (i64 -2 to ptr), ptr %.0.i
  %22 = getelementptr inbounds nuw i8, ptr %20, i64 88
  store ptr %21, ptr %22, align 8, !tbaa !25
  br label %ft_pfr_check.exit

ft_pfr_check.exit:                                ; preds = %6, %19
  %.015.i = phi ptr [ %.0.i, %19 ], [ %10, %6 ]
  %.not35 = icmp eq ptr %.015.i, null
  br i1 %.not35, label %ft_pfr_check.exit.thread, label %23

23:                                               ; preds = %ft_pfr_check.exit
  %24 = load ptr, ptr %.015.i, align 8, !tbaa !38
  %25 = tail call i32 %24(ptr noundef nonnull %0, ptr noundef %1, ptr noundef %2, ptr noundef %3, ptr noundef %4) #2
  br label %47

ft_pfr_check.exit.thread:                         ; preds = %6, %ft_pfr_check.exit
  %.not36 = icmp eq ptr %1, null
  br i1 %.not36, label %30, label %26

26:                                               ; preds = %ft_pfr_check.exit.thread
  %27 = getelementptr inbounds nuw i8, ptr %0, i64 136
  %28 = load i16, ptr %27, align 8, !tbaa !40
  %29 = zext i16 %28 to i32
  store i32 %29, ptr %1, align 4, !tbaa !41
  br label %30

30:                                               ; preds = %26, %ft_pfr_check.exit.thread
  %.not37 = icmp eq ptr %2, null
  br i1 %.not37, label %35, label %31

31:                                               ; preds = %30
  %32 = getelementptr inbounds nuw i8, ptr %0, i64 136
  %33 = load i16, ptr %32, align 8, !tbaa !40
  %34 = zext i16 %33 to i32
  store i32 %34, ptr %2, align 4, !tbaa !41
  br label %35

35:                                               ; preds = %31, %30
  %36 = getelementptr inbounds nuw i8, ptr %0, i64 160
  %37 = load ptr, ptr %36, align 8, !tbaa !42
  %.not38 = icmp eq ptr %37, null
  br i1 %.not38, label %43, label %38

38:                                               ; preds = %35
  %39 = getelementptr inbounds nuw i8, ptr %37, i64 32
  %40 = load i64, ptr %39, align 8, !tbaa !43
  %41 = getelementptr inbounds nuw i8, ptr %37, i64 40
  %42 = load i64, ptr %41, align 8, !tbaa !48
  br label %43

43:                                               ; preds = %38, %35
  %.025 = phi i64 [ %40, %38 ], [ 65536, %35 ]
  %.0 = phi i64 [ %42, %38 ], [ 65536, %35 ]
  %.not39 = icmp eq ptr %3, null
  br i1 %.not39, label %45, label %44

44:                                               ; preds = %43
  store i64 %.025, ptr %3, align 8, !tbaa !49
  br label %45

45:                                               ; preds = %44, %43
  %.not40 = icmp eq ptr %4, null
  br i1 %.not40, label %47, label %46

46:                                               ; preds = %45
  store i64 %.0, ptr %4, align 8, !tbaa !49
  br label %47

47:                                               ; preds = %23, %46, %45, %5
  %.026 = phi i32 [ 35, %5 ], [ %25, %23 ], [ 2, %46 ], [ 2, %45 ]
  ret i32 %.026
}